; Function Attrs: nounwind uwtable
define dso_local ptr @plugin_get_sym(ptr noundef %0, ptr noundef %1) local_unnamed_addr #0 {
  %.not = icmp eq ptr %0, null
  br i1 %.not, label %5, label %3

3:                                                ; preds = %2
  %4 = tail call ptr @dlsym(ptr noundef nonnull %0, ptr noundef %1) #10
  br label %5

5:                                                ; preds = %2, %3
  %.0 = phi ptr [ %4, %3 ], [ null, %2 ]
  ret ptr %.0
}